target datalayout = "e-m:e-p270:32:32-p271:32:32-p272:64:64-i64:64-i128:128-f80:128-n8:16:32:64-S128"
target triple = "x86_64-pc-linux-gnu"

%struct._generic_N_Vector = type { ptr, ptr, ptr }
%struct._N_VectorContent_Serial = type { i64, i32, ptr }

; Function Attrs: nounwind uwtable
define dso_local i32 @fres(double noundef %0, ptr noundef %1, ptr noundef %2, ptr noundef %3, ptr noundef %4) #0 {
  %6 = alloca double, align 8
  %7 = alloca ptr, align 8
  %8 = alloca ptr, align 8
  %9 = alloca ptr, align 8
  %10 = alloca ptr, align 8
  %11 = alloca ptr, align 8
  %12 = alloca double, align 8
  %13 = alloca double, align 8
  %14 = alloca double, align 8
  %15 = alloca double, align 8
  %16 = alloca double, align 8
  %17 = alloca double, align 8
  store double %0, ptr %6, align 8, !tbaa !4
  store ptr %1, ptr %7, align 8, !tbaa !10
  store ptr %2, ptr %8, align 8, !tbaa !10
  store ptr %3, ptr %9, align 8, !tbaa !10
  store ptr %4, ptr %10, align 8, !tbaa !15
  call void @llvm.lifetime.start.p0(i64 8, ptr %11) #5
  %18 = load ptr, ptr %10, align 8, !tbaa !15
  store ptr %18, ptr %11, align 8, !tbaa !32
  call void @llvm.lifetime.start.p0(i64 8, ptr %12) #5
  %19 = load ptr, ptr %11, align 8, !tbaa !32
  %20 = getelementptr inbounds double, ptr %19, i64 0
  %21 = load double, ptr %20, align 8, !tbaa !4
  store double %21, ptr %12, align 8, !tbaa !4
  call void @llvm.lifetime.start.p0(i64 8, ptr %13) #5
  %22 = load ptr, ptr %7, align 8, !tbaa !10
  %23 = getelementptr inbounds nuw %struct._generic_N_Vector, ptr %22, i32 0, i32 0
  %24 = load ptr, ptr %23, align 8, !tbaa !20
  %25 = getelementptr inbounds nuw %struct._N_VectorContent_Serial, ptr %24, i32 0, i32 2
  %26 = load ptr, ptr %25, align 8, !tbaa !23
  %27 = getelementptr inbounds double, ptr %26, i64 0
  %28 = load double, ptr %27, align 8, !tbaa !4
  store double %28, ptr %13, align 8, !tbaa !4
  call void @llvm.lifetime.start.p0(i64 8, ptr %14) #5
  %29 = load ptr, ptr %7, align 8, !tbaa !10
  %30 = getelementptr inbounds nuw %struct._generic_N_Vector, ptr %29, i32 0, i32 0
  %31 = load ptr, ptr %30, align 8, !tbaa !20
  %32 = getelementptr inbounds nuw %struct._N_VectorContent_Serial, ptr %31, i32 0, i32 2
  %33 = load ptr, ptr %32, align 8, !tbaa !23
  %34 = getelementptr inbounds double, ptr %33, i64 1
  %35 = load double, ptr %34, align 8, !tbaa !4
  store double %35, ptr %14, align 8, !tbaa !4
  call void @llvm.lifetime.start.p0(i64 8, ptr %15) #5
  %36 = load ptr, ptr %8, align 8, !tbaa !10
  %37 = getelementptr inbounds nuw %struct._generic_N_Vector, ptr %36, i32 0, i32 0
  %38 = load ptr, ptr %37, align 8, !tbaa !20
  %39 = getelementptr inbounds nuw %struct._N_VectorContent_Serial, ptr %38, i32 0, i32 2
  %40 = load ptr, ptr %39, align 8, !tbaa !23
  %41 = getelementptr inbounds double, ptr %40, i64 0
  %42 = load double, ptr %41, align 8, !tbaa !4
  store double %42, ptr %15, align 8, !tbaa !4
  call void @llvm.lifetime.start.p0(i64 8, ptr %16) #5
  store double 1.000000e+00, ptr %16, align 8, !tbaa !4
  call void @llvm.lifetime.start.p0(i64 8, ptr %17) #5
  store double 2.000000e+00, ptr %17, align 8, !tbaa !4
  %43 = load double, ptr %16, align 8, !tbaa !4
  %44 = load double, ptr %12, align 8, !tbaa !4
  %45 = fsub double %43, %44
  %46 = load double, ptr %6, align 8, !tbaa !4
  %47 = load double, ptr %17, align 8, !tbaa !4
  %48 = fsub double %46, %47
  %49 = fdiv double %45, %48
  %50 = load double, ptr %13, align 8, !tbaa !4
  %51 = load double, ptr %13, align 8, !tbaa !4
  %52 = fneg double %51
  %53 = call double @llvm.fmuladd.f64(double %49, double %50, double %52)
  %54 = load double, ptr %12, align 8, !tbaa !4
  %55 = load double, ptr %16, align 8, !tbaa !4
  %56 = fsub double %54, %55
  %57 = load double, ptr %14, align 8, !tbaa !4
  %58 = call double @llvm.fmuladd.f64(double %56, double %57, double %53)
  %59 = load double, ptr %17, align 8, !tbaa !4
  %60 = load double, ptr %6, align 8, !tbaa !4
  %61 = call double @exp(double noundef %60) #5, !tbaa !16
  %62 = call double @llvm.fmuladd.f64(double %59, double %61, double %58)
  %63 = load double, ptr %15, align 8, !tbaa !4
  %64 = fsub double %62, %63
  %65 = load ptr, ptr %9, align 8, !tbaa !10
  %66 = getelementptr inbounds nuw %struct._generic_N_Vector, ptr %65, i32 0, i32 0
  %67 = load ptr, ptr %66, align 8, !tbaa !20
  %68 = getelementptr inbounds nuw %struct._N_VectorContent_Serial, ptr %67, i32 0, i32 2
  %69 = load ptr, ptr %68, align 8, !tbaa !23
  %70 = getelementptr inbounds double, ptr %69, i64 0
  store double %64, ptr %70, align 8, !tbaa !4
  %71 = load double, ptr %6, align 8, !tbaa !4
  %72 = load double, ptr %17, align 8, !tbaa !4
  %73 = fadd double %71, %72
  %74 = load double, ptr %13, align 8, !tbaa !4
  %75 = load double, ptr %6, align 8, !tbaa !4
  %76 = load double, ptr %17, align 8, !tbaa !4
  %77 = fadd double %75, %76
  %78 = load double, ptr %6, align 8, !tbaa !4
  %79 = call double @exp(double noundef %78) #5, !tbaa !16
  %80 = fmul double %77, %79
  %81 = fneg double %80
  %82 = call double @llvm.fmuladd.f64(double %73, double %74, double %81)
  %83 = load ptr, ptr %9, align 8, !tbaa !10
  %84 = getelementptr inbounds nuw %struct._generic_N_Vector, ptr %83, i32 0, i32 0
  %85 = load ptr, ptr %84, align 8, !tbaa !20
  %86 = getelementptr inbounds nuw %struct._N_VectorContent_Serial, ptr %85, i32 0, i32 2
  %87 = load ptr, ptr %86, align 8, !tbaa !23
  %88 = getelementptr inbounds double, ptr %87, i64 1
  store double %82, ptr %88, align 8, !tbaa !4
  call void @llvm.lifetime.end.p0(i64 8, ptr %17) #5
  call void @llvm.lifetime.end.p0(i64 8, ptr %16) #5
  call void @llvm.lifetime.end.p0(i64 8, ptr %15) #5
  call void @llvm.lifetime.end.p0(i64 8, ptr %14) #5
  call void @llvm.lifetime.end.p0(i64 8, ptr %13) #5
  call void @llvm.lifetime.end.p0(i64 8, ptr %12) #5
  call void @llvm.lifetime.end.p0(i64 8, ptr %11) #5
  ret i32 0
}