; Function Attrs: mustprogress nofree nounwind willreturn memory(readwrite, inaccessiblemem: write) uwtable
define dso_local noundef i32 @fres(double noundef %0, ptr noundef readonly captures(none) %1, ptr noundef readonly captures(none) %2, ptr noundef readonly captures(none) %3, ptr noundef readonly captures(none) %4) #4 {
  %6 = load double, ptr %4, align 8, !tbaa !4
  %7 = load ptr, ptr %1, align 8, !tbaa !13
  %8 = getelementptr inbounds nuw i8, ptr %7, i64 16
  %9 = load ptr, ptr %8, align 8, !tbaa !16
  %10 = load double, ptr %9, align 8, !tbaa !4
  %11 = getelementptr inbounds nuw i8, ptr %9, i64 8
  %12 = load double, ptr %11, align 8, !tbaa !4
  %13 = load ptr, ptr %2, align 8, !tbaa !13
  %14 = getelementptr inbounds nuw i8, ptr %13, i64 16
  %15 = load ptr, ptr %14, align 8, !tbaa !16
  %16 = load double, ptr %15, align 8, !tbaa !4
  %17 = fsub double 1.000000e+00, %6
  %18 = fadd double %0, -2.000000e+00
  %19 = fdiv double %17, %18
  %20 = fneg double %10
  %21 = tail call double @llvm.fmuladd.f64(double %19, double %10, double %20)
  %22 = fadd double %6, -1.000000e+00
  %23 = tail call double @llvm.fmuladd.f64(double %22, double %12, double %21)
  %24 = tail call double @exp(double noundef %0) #9, !tbaa !31
  %25 = tail call double @llvm.fmuladd.f64(double %24, double 2.000000e+00, double %23)
  %26 = fsub double %25, %16
  %27 = load ptr, ptr %3, align 8, !tbaa !13
  %28 = getelementptr inbounds nuw i8, ptr %27, i64 16
  %29 = load ptr, ptr %28, align 8, !tbaa !16
  store double %26, ptr %29, align 8, !tbaa !4
  %30 = fadd double %0, 2.000000e+00
  %31 = tail call double @exp(double noundef %0) #9, !tbaa !31
  %32 = fneg double %31
  %33 = fmul double %30, %32
  %34 = tail call double @llvm.fmuladd.f64(double %30, double %10, double %33)
  %35 = getelementptr inbounds nuw i8, ptr %29, i64 8
  store double %34, ptr %35, align 8, !tbaa !4
  ret i32 0
}